target datalayout = "e-m:e-p270:32:32-p271:32:32-p272:64:64-i64:64-i128:128-f80:128-n8:16:32:64-S128"
target triple = "x86_64-pc-linux-gnu"

%"struct.duckdb::StringDictionaryContainer" = type { i32, i32 }
%"class.duckdb::BufferHandle" = type { %"class.duckdb::shared_ptr", %"class.duckdb::optional_ptr" }
%"class.duckdb::shared_ptr" = type { %"class.std::shared_ptr" }
%"class.std::shared_ptr" = type { %"class.std::__shared_ptr" }
%"class.std::__shared_ptr" = type { ptr, %"class.std::__shared_count" }
%"class.std::__shared_count" = type { ptr }
%"class.duckdb::optional_ptr" = type { ptr }
%"struct.duckdb::string_t" = type { %union.anon.29 }
%union.anon.29 = type { %struct.anon }
%struct.anon = type { i32, [4 x i8], ptr }
%struct.anon.30 = type { i32, [12 x i8] }
%"struct.duckdb::CompressedStringScanState" = type { %"struct.duckdb::StringScanState", %"class.duckdb::BufferHandle", %"class.duckdb::optional_ptr.155", i8, %"class.duckdb::shared_ptr.156", i64, ptr, ptr, ptr, i32, %"class.duckdb::shared_ptr.160", i64, %"struct.duckdb::StringDictionaryContainer", i64 }
%"struct.duckdb::StringScanState" = type { %"struct.duckdb::SegmentScanState", %"class.duckdb::BufferHandle" }
%"struct.duckdb::SegmentScanState" = type { ptr }
%"class.duckdb::optional_ptr.155" = type { ptr }
%"class.duckdb::shared_ptr.156" = type { %"class.std::shared_ptr.157" }
%"class.std::shared_ptr.157" = type { %"class.std::__shared_ptr.158" }
%"class.std::__shared_ptr.158" = type { ptr, %"class.std::__shared_count" }
%"class.duckdb::shared_ptr.160" = type { %"class.std::shared_ptr.161" }
%"class.std::shared_ptr.161" = type { %"class.std::__shared_ptr.162" }
%"class.std::__shared_ptr.162" = type { ptr, %"class.std::__shared_count" }

; Function Attrs: mustprogress nounwind uwtable
define linkonce_odr noundef i64 @_ZNK6duckdb8string_t7GetSizeEv(ptr noundef nonnull align 8 dereferenceable(16) %0) #3 comdat align 2 {
  %2 = alloca ptr, align 8
  store ptr %0, ptr %2, align 8, !tbaa !81
  %3 = load ptr, ptr %2, align 8
  %4 = getelementptr inbounds nuw %"struct.duckdb::string_t", ptr %3, i32 0, i32 0
  %5 = getelementptr inbounds nuw %struct.anon.30, ptr %4, i32 0, i32 0
  %6 = load i32, ptr %5, align 8, !tbaa !7
  %7 = zext i32 %6 to i64
  ret i64 %7
}

; Function Attrs: mustprogress nounwind uwtable
define linkonce_odr noundef zeroext i1 @_ZNK6duckdb8string_t9IsInlinedEv(ptr noundef nonnull align 8 dereferenceable(16) %0) #3 comdat align 2 {
  %2 = alloca ptr, align 8
  store ptr %0, ptr %2, align 8, !tbaa !81
  %3 = load ptr, ptr %2, align 8
  %4 = call noundef i64 @_ZNK6duckdb8string_t7GetSizeEv(ptr noundef nonnull align 8 dereferenceable(16) %3)
  %5 = icmp ule i64 %4, 12
  ret i1 %5
}

; Function Attrs: mustprogress nounwind uwtable
define linkonce_odr noundef ptr @_ZN6duckdb13char_ptr_castIhEEPcPT_(ptr noundef %0) #3 comdat {
  %2 = alloca ptr, align 8
  store ptr %0, ptr %2, align 8, !tbaa !66
  %3 = load ptr, ptr %2, align 8, !tbaa !66
  ret ptr %3
}

; Function Attrs: mustprogress nounwind uwtable
define linkonce_odr void @_ZN6duckdb8string_tC2EPKcj(ptr noundef nonnull align 8 dereferenceable(16) %0, ptr noundef %1, i32 noundef %2) unnamed_addr #3 comdat align 2 {
  %4 = alloca ptr, align 8
  %5 = alloca ptr, align 8
  %6 = alloca i32, align 4
  store ptr %0, ptr %4, align 8, !tbaa !81
  store ptr %1, ptr %5, align 8, !tbaa !66
  store i32 %2, ptr %6, align 4, !tbaa !67
  %7 = load ptr, ptr %4, align 8
  %8 = load i32, ptr %6, align 4, !tbaa !67
  %9 = getelementptr inbounds nuw %"struct.duckdb::string_t", ptr %7, i32 0, i32 0
  %10 = getelementptr inbounds nuw %struct.anon.30, ptr %9, i32 0, i32 0
  store i32 %8, ptr %10, align 8, !tbaa !7
  %11 = call noundef zeroext i1 @_ZNK6duckdb8string_t9IsInlinedEv(ptr noundef nonnull align 8 dereferenceable(16) %7)
  br i1 %11, label %12, label %25

12:                                               ; preds = %3
  %13 = getelementptr inbounds nuw %"struct.duckdb::string_t", ptr %7, i32 0, i32 0
  %14 = getelementptr inbounds nuw %struct.anon.30, ptr %13, i32 0, i32 1
  %15 = getelementptr inbounds [12 x i8], ptr %14, i64 0, i64 0
  call void @llvm.memset.p0.i64(ptr align 4 %15, i8 0, i64 12, i1 false)
  %16 = call noundef i64 @_ZNK6duckdb8string_t7GetSizeEv(ptr noundef nonnull align 8 dereferenceable(16) %7)
  %17 = icmp eq i64 %16, 0
  br i1 %17, label %18, label %19

18:                                               ; preds = %12
  br label %33

19:                                               ; preds = %12
  %20 = getelementptr inbounds nuw %"struct.duckdb::string_t", ptr %7, i32 0, i32 0
  %21 = getelementptr inbounds nuw %struct.anon.30, ptr %20, i32 0, i32 1
  %22 = getelementptr inbounds [12 x i8], ptr %21, i64 0, i64 0
  %23 = load ptr, ptr %5, align 8, !tbaa !66
  %24 = call noundef i64 @_ZNK6duckdb8string_t7GetSizeEv(ptr noundef nonnull align 8 dereferenceable(16) %7)
  call void @llvm.memcpy.p0.p0.i64(ptr align 4 %22, ptr align 1 %23, i64 %24, i1 false)
  br label %33

25:                                               ; preds = %3
  %26 = getelementptr inbounds nuw %"struct.duckdb::string_t", ptr %7, i32 0, i32 0
  %27 = getelementptr inbounds nuw %struct.anon, ptr %26, i32 0, i32 1
  %28 = getelementptr inbounds [4 x i8], ptr %27, i64 0, i64 0
  %29 = load ptr, ptr %5, align 8, !tbaa !66
  call void @llvm.memcpy.p0.p0.i64(ptr align 4 %28, ptr align 1 %29, i64 4, i1 false)
  %30 = load ptr, ptr %5, align 8, !tbaa !66
  %31 = getelementptr inbounds nuw %"struct.duckdb::string_t", ptr %7, i32 0, i32 0
  %32 = getelementptr inbounds nuw %struct.anon, ptr %31, i32 0, i32 2
  store ptr %30, ptr %32, align 8, !tbaa !7
  br label %33

33:                                               ; preds = %18, %25, %19
  ret void
}

; Function Attrs: mustprogress uwtable
define { i64, ptr } @_ZN6duckdb25CompressedStringScanState19FetchStringFromDictEit(ptr noundef nonnull align 8 dereferenceable(168) %0, i32 noundef %1, i16 noundef zeroext %2) #0 align 2 {
  %4 = alloca %"struct.duckdb::string_t", align 8
  %5 = alloca ptr, align 8
  %6 = alloca i32, align 4
  %7 = alloca i16, align 2
  %8 = alloca ptr, align 8
  %9 = alloca ptr, align 8
  %10 = alloca ptr, align 8
  store ptr %0, ptr %5, align 8, !tbaa !243
  store i32 %1, ptr %6, align 4, !tbaa !67
  store i16 %2, ptr %7, align 2, !tbaa !240
  %11 = load ptr, ptr %5, align 8
  %12 = load i32, ptr %6, align 4, !tbaa !67
  %13 = icmp eq i32 %12, 0
  br i1 %13, label %14, label %15

14:                                               ; preds = %3
  call void @_ZN6duckdb8string_tC2EPKcj(ptr noundef nonnull align 8 dereferenceable(16) %4, ptr noundef null, i32 noundef 0)
  br label %33

15:                                               ; preds = %3
  call void @llvm.lifetime.start.p0(i64 8, ptr %8) #19
  %16 = getelementptr inbounds nuw %"struct.duckdb::CompressedStringScanState", ptr %11, i32 0, i32 6
  %17 = load ptr, ptr %16, align 8, !tbaa !256
  %18 = getelementptr inbounds nuw %"struct.duckdb::CompressedStringScanState", ptr %11, i32 0, i32 12
  %19 = getelementptr inbounds nuw %"struct.duckdb::StringDictionaryContainer", ptr %18, i32 0, i32 1
  %20 = load i32, ptr %19, align 4, !tbaa !257
  %21 = zext i32 %20 to i64
  %22 = getelementptr inbounds nuw i8, ptr %17, i64 %21
  store ptr %22, ptr %8, align 8, !tbaa !66
  call void @llvm.lifetime.start.p0(i64 8, ptr %9) #19
  %23 = load ptr, ptr %8, align 8, !tbaa !66
  %24 = load i32, ptr %6, align 4, !tbaa !67
  %25 = sext i32 %24 to i64
  %26 = sub i64 0, %25
  %27 = getelementptr inbounds i8, ptr %23, i64 %26
  store ptr %27, ptr %9, align 8, !tbaa !66
  call void @llvm.lifetime.start.p0(i64 8, ptr %10) #19
  %28 = load ptr, ptr %9, align 8, !tbaa !66
  %29 = call noundef ptr @_ZN6duckdb13char_ptr_castIhEEPcPT_(ptr noundef %28)
  store ptr %29, ptr %10, align 8, !tbaa !66
  %30 = load ptr, ptr %10, align 8, !tbaa !66
  %31 = load i16, ptr %7, align 2, !tbaa !240
  %32 = zext i16 %31 to i32
  call void @_ZN6duckdb8string_tC2EPKcj(ptr noundef nonnull align 8 dereferenceable(16) %4, ptr noundef %30, i32 noundef %32)
  call void @llvm.lifetime.end.p0(i64 8, ptr %10) #19
  call void @llvm.lifetime.end.p0(i64 8, ptr %9) #19
  call void @llvm.lifetime.end.p0(i64 8, ptr %8) #19
  br label %33

33:                                               ; preds = %15, %14
  %34 = getelementptr inbounds nuw %"struct.duckdb::string_t", ptr %4, i32 0, i32 0
  %35 = getelementptr inbounds nuw %union.anon.29, ptr %34, i32 0, i32 0
  %36 = load { i64, ptr }, ptr %35, align 8
  ret { i64, ptr } %36
}