; Function Attrs: mustprogress nofree norecurse nosync nounwind willreturn memory(readwrite, inaccessiblemem: none) uwtable
define { i64, ptr } @_ZN6duckdb25CompressedStringScanState19FetchStringFromDictEit(ptr noundef nonnull readonly align 8 captures(none) dereferenceable(168) %0, i32 noundef %1, i16 noundef zeroext %2) local_unnamed_addr #13 align 2 {
  %.sroa.0 = alloca %struct.anon, align 8
  %4 = icmp eq i32 %1, 0
  br i1 %4, label %5, label %6

5:                                                ; preds = %3
  call void @llvm.memset.p0.i64(ptr noundef nonnull align 8 dereferenceable(16) %.sroa.0, i8 0, i64 16, i1 false)
  br label %_ZN6duckdb8string_tC2EPKcj.exit

6:                                                ; preds = %3
  %7 = getelementptr inbounds nuw i8, ptr %0, i64 96
  %8 = load ptr, ptr %7, align 8, !tbaa !201
  %9 = getelementptr inbounds nuw i8, ptr %0, i64 156
  %10 = load i32, ptr %9, align 4, !tbaa !202
  %11 = zext i32 %10 to i64
  %12 = getelementptr inbounds nuw i8, ptr %8, i64 %11
  %13 = sext i32 %1 to i64
  %14 = sub nsw i64 0, %13
  %15 = getelementptr inbounds i8, ptr %12, i64 %14
  %16 = zext i16 %2 to i32
  store i32 %16, ptr %.sroa.0, align 8, !tbaa !83
  %17 = icmp ult i16 %2, 13
  br i1 %17, label %18, label %22

18:                                               ; preds = %6
  %.sroa.0.4..sroa_idx20 = getelementptr inbounds nuw i8, ptr %.sroa.0, i64 4
  call void @llvm.memset.p0.i64(ptr noundef nonnull align 4 dereferenceable(12) %.sroa.0.4..sroa_idx20, i8 0, i64 12, i1 false)
  %19 = icmp eq i16 %2, 0
  br i1 %19, label %_ZN6duckdb8string_tC2EPKcj.exit, label %20

20:                                               ; preds = %18
  %21 = zext nneg i16 %2 to i64
  %.sroa.0.4..sroa_idx = getelementptr inbounds nuw i8, ptr %.sroa.0, i64 4
  call void @llvm.memcpy.p0.p0.i64(ptr nonnull align 4 %.sroa.0.4..sroa_idx, ptr nonnull align 1 %15, i64 %21, i1 false)
  %.sroa.0.8..fca.1.gep.sroa_idx = getelementptr inbounds nuw i8, ptr %.sroa.0, i64 8
  %.sroa.0.8..sroa.0.8..sroa.0.8..sroa.0.8..fca.1.load.pre = load ptr, ptr %.sroa.0.8..fca.1.gep.sroa_idx, align 8
  br label %_ZN6duckdb8string_tC2EPKcj.exit

22:                                               ; preds = %6
  %23 = load i32, ptr %15, align 1
  %.sroa.0.4..sroa_idx19 = getelementptr inbounds nuw i8, ptr %.sroa.0, i64 4
  store i32 %23, ptr %.sroa.0.4..sroa_idx19, align 4
  br label %_ZN6duckdb8string_tC2EPKcj.exit

_ZN6duckdb8string_tC2EPKcj.exit:                  ; preds = %22, %20, %18, %5
  %.sroa.0.8..sroa.0.8..sroa.0.8..fca.1.load = phi ptr [ %15, %22 ], [ %.sroa.0.8..sroa.0.8..sroa.0.8..sroa.0.8..fca.1.load.pre, %20 ], [ null, %18 ], [ null, %5 ]
  %.sroa.0.0..sroa.0.0..sroa.0.0..sroa.0.0..fca.0.load = load i64, ptr %.sroa.0, align 8
  %.fca.0.insert = insertvalue { i64, ptr } poison, i64 %.sroa.0.0..sroa.0.0..sroa.0.0..sroa.0.0..fca.0.load, 0
  %.fca.1.insert = insertvalue { i64, ptr } %.fca.0.insert, ptr %.sroa.0.8..sroa.0.8..sroa.0.8..fca.1.load, 1
  ret { i64, ptr } %.fca.1.insert
}